ARM GAS  C:\Users\dgitau\AppData\Local\Temp\ccsO7j4q.s 			page 1


   1              		.syntax unified
   2              		.cpu cortex-m3
   3              		.fpu softvfp
   4              		.eabi_attribute 20, 1
   5              		.eabi_attribute 21, 1
   6              		.eabi_attribute 23, 3
   7              		.eabi_attribute 24, 1
   8              		.eabi_attribute 25, 1
   9              		.eabi_attribute 26, 1
  10              		.eabi_attribute 30, 1
  11              		.eabi_attribute 34, 1
  12              		.eabi_attribute 18, 4
  13              		.thumb
  14              		.syntax unified
  15              		.file	"main.c"
  16              		.text
  17              	.Ltext0:
  18              		.cfi_sections	.debug_frame
  19              		.section	.text.magnet_inter,"ax",%progbits
  20              		.align	2
  21              		.global	magnet_inter
  22              		.thumb
  23              		.thumb_func
  24              		.type	magnet_inter, %function
  25              	magnet_inter:
  26              	.LFB64:
  27              		.file 1 "main.c"
   1:main.c        **** /* ========================================
   2:main.c        ****  *
   3:main.c        ****  * Chege Gitau & Eric Ham
   4:main.c        ****  * ELE 302
   5:main.c        ****  * Speed Control
   6:main.c        ****  *
   7:main.c        ****  * ========================================
   8:main.c        **** */
   9:main.c        **** #include "project.h"
  10:main.c        **** #include <stdio.h>
  11:main.c        **** 
  12:main.c        **** 
  13:main.c        **** static double k_p = 0;  /* Gives us a fast rise time */
  14:main.c        **** static double k_i = 0;  /* Allows us to correct the steady state error */
  15:main.c        **** static double k_d = 0;  /* Dampens the system and reduces overshoot */
  16:main.c        **** 
  17:main.c        **** static double wheel_diam_inches = 2.5;
  18:main.c        **** 
  19:main.c        **** static double desired_speed = 4;   /* Reference speed 4ft/sec */
  20:main.c        **** 
  21:main.c        **** static int magnet_flag = 0;    /* Keeps track of magnet passes */
  22:main.c        **** 
  23:main.c        **** static int index_of_magnet = 0;
  24:main.c        **** static double magnet_view_times[] = {0, 0, 0, 0, 0};
  25:main.c        **** 
  26:main.c        **** 
  27:main.c        **** CY_ISR(magnet_inter) {
  28              		.loc 1 27 0
  29              		.cfi_startproc
  30              		@ args = 0, pretend = 0, frame = 0
ARM GAS  C:\Users\dgitau\AppData\Local\Temp\ccsO7j4q.s 			page 2


  31              		@ frame_needed = 0, uses_anonymous_args = 0
  32              		@ link register save eliminated.
  28:main.c        ****     magnet_flag = 1;
  33              		.loc 1 28 0
  34 0000 034B     		ldr	r3, .L2
  35 0002 0122     		movs	r2, #1
  36 0004 1A60     		str	r2, [r3]
  29:main.c        ****     index_of_magnet += 1;
  37              		.loc 1 29 0
  38 0006 5A68     		ldr	r2, [r3, #4]
  39 0008 0132     		adds	r2, r2, #1
  40 000a 5A60     		str	r2, [r3, #4]
  41 000c 7047     		bx	lr
  42              	.L3:
  43 000e 00BF     		.align	2
  44              	.L2:
  45 0010 00000000 		.word	.LANCHOR0
  46              		.cfi_endproc
  47              	.LFE64:
  48              		.size	magnet_inter, .-magnet_inter
  49              		.global	__aeabi_ui2d
  50              		.global	__aeabi_dsub
  51              		.global	__aeabi_d2uiz
  52              		.global	__aeabi_ddiv
  53              		.global	__aeabi_dmul
  54              		.global	__aeabi_dadd
  55              		.section	.text.main,"ax",%progbits
  56              		.align	2
  57              		.global	main
  58              		.thumb
  59              		.thumb_func
  60              		.type	main, %function
  61              	main:
  62              	.LFB65:
  30:main.c        **** }
  31:main.c        **** 
  32:main.c        **** int main(void)
  33:main.c        **** {
  63              		.loc 1 33 0
  64              		.cfi_startproc
  65              		@ args = 0, pretend = 0, frame = 24
  66              		@ frame_needed = 0, uses_anonymous_args = 0
  67 0000 2DE9F04F 		push	{r4, r5, r6, r7, r8, r9, r10, fp, lr}
  68              		.cfi_def_cfa_offset 36
  69              		.cfi_offset 4, -36
  70              		.cfi_offset 5, -32
  71              		.cfi_offset 6, -28
  72              		.cfi_offset 7, -24
  73              		.cfi_offset 8, -20
  74              		.cfi_offset 9, -16
  75              		.cfi_offset 10, -12
  76              		.cfi_offset 11, -8
  77              		.cfi_offset 14, -4
  78 0004 87B0     		sub	sp, sp, #28
  79              		.cfi_def_cfa_offset 64
  34:main.c        ****     double input_speed, output_speed, magnet_separation_distance;
  35:main.c        ****     unsigned long time_delta;
ARM GAS  C:\Users\dgitau\AppData\Local\Temp\ccsO7j4q.s 			page 3


  36:main.c        ****     double error, err_sum, err_derivative, last_error;
  37:main.c        ****     int current_index, previous_index;
  38:main.c        ****     char str_buffer[16];
  39:main.c        ****     
  40:main.c        ****     CyGlobalIntEnable; /* Enable global interrupts. */
  80              		.loc 1 40 0
  81              		.syntax unified
  82              	@ 40 "main.c" 1
  83 0006 62B6     		CPSIE   i
  84              	@ 0 "" 2
  41:main.c        **** 
  42:main.c        ****     /* Initialization Code */
  43:main.c        ****     PWM_Start();
  85              		.loc 1 43 0
  86              		.thumb
  87              		.syntax unified
  88 0008 FFF7FEFF 		bl	PWM_Start
  89              	.LVL0:
  44:main.c        ****     Timer_Start();
  90              		.loc 1 44 0
  91 000c FFF7FEFF 		bl	Timer_Start
  92              	.LVL1:
  45:main.c        ****     Counter_Interrupt_Start();
  93              		.loc 1 45 0
  94 0010 FFF7FEFF 		bl	Counter_Interrupt_Start
  95              	.LVL2:
  46:main.c        ****     Counter_Interrupt_SetVector(magnet_inter);
  96              		.loc 1 46 0
  97 0014 5248     		ldr	r0, .L9+8
  98 0016 FFF7FEFF 		bl	Counter_Interrupt_SetVector
  99              	.LVL3:
  47:main.c        ****     
  48:main.c        ****     LCD_Position(0, 0);
 100              		.loc 1 48 0
 101 001a 0021     		movs	r1, #0
 102 001c 0846     		mov	r0, r1
 103 001e FFF7FEFF 		bl	LCD_Position
 104              	.LVL4:
  49:main.c        ****     LCD_PrintString("Speed Control!");
 105              		.loc 1 49 0
 106 0022 5048     		ldr	r0, .L9+12
 107 0024 FFF7FEFF 		bl	LCD_PrintString
 108              	.LVL5:
  50:main.c        ****     magnet_separation_distance = (22.0f / 7.0f) * wheel_diam_inches / 5.0f;
  51:main.c        ****     last_error = 0;
 109              		.loc 1 51 0
 110 0028 4FF0000A 		mov	r10, #0
 111 002c 4FF0000B 		mov	fp, #0
 112              	.LVL6:
 113              	.L5:
  52:main.c        ****     
  53:main.c        ****     /* Changes Made:
  54:main.c        ****      * Structure of the if-else block
  55:main.c        ****      * Measured and set wheel_diam_inches to 2.5 inches
  56:main.c        ****      * Defined magnet_separation_distance and got the input speed.
  57:main.c        ****      * Added the PWM write statement to give the new speed.
  58:main.c        ****      * Print out the recently measured speed to the LCD display.
ARM GAS  C:\Users\dgitau\AppData\Local\Temp\ccsO7j4q.s 			page 4


  59:main.c        ****      */
  60:main.c        ****     
  61:main.c        ****     for(;;) { 
  62:main.c        ****         
  63:main.c        ****         if (magnet_flag == 1) {
 114              		.loc 1 63 0
 115 0030 4D4B     		ldr	r3, .L9+16
 116 0032 1B68     		ldr	r3, [r3]
 117 0034 012B     		cmp	r3, #1
 118 0036 FBD1     		bne	.L5
  64:main.c        ****             
  65:main.c        ****             current_index = index_of_magnet % 5;
 119              		.loc 1 65 0
 120 0038 4B4D     		ldr	r5, .L9+16
 121 003a 6A68     		ldr	r2, [r5, #4]
 122 003c 4B4C     		ldr	r4, .L9+20
 123 003e 84FB0234 		smull	r3, r4, r4, r2
 124 0042 D317     		asrs	r3, r2, #31
 125 0044 C3EB6404 		rsb	r4, r3, r4, asr #1
 126 0048 04EB8404 		add	r4, r4, r4, lsl #2
 127 004c 141B     		subs	r4, r2, r4
 128              	.LVL7:
  66:main.c        ****             magnet_view_times[current_index] = Timer_ReadCapture();
 129              		.loc 1 66 0
 130 004e FFF7FEFF 		bl	Timer_ReadCapture
 131              	.LVL8:
 132 0052 FFF7FEFF 		bl	__aeabi_ui2d
 133              	.LVL9:
 134 0056 05EBC404 		add	r4, r5, r4, lsl #3
 135              	.LVL10:
 136 005a C4E90201 		strd	r0, [r4, #8]
  67:main.c        ****         
  68:main.c        ****             if (index_of_magnet != 1) {
 137              		.loc 1 68 0
 138 005e 6B68     		ldr	r3, [r5, #4]
 139 0060 012B     		cmp	r3, #1
 140 0062 72D0     		beq	.L6
  69:main.c        ****                 
  70:main.c        ****                 previous_index = (index_of_magnet - 1) % 5; 
 141              		.loc 1 70 0
 142 0064 5A1E     		subs	r2, r3, #1
 143 0066 414B     		ldr	r3, .L9+20
 144 0068 83FB0234 		smull	r3, r4, r3, r2
 145 006c D317     		asrs	r3, r2, #31
 146 006e C3EB6403 		rsb	r3, r3, r4, asr #1
 147 0072 03EB8303 		add	r3, r3, r3, lsl #2
 148 0076 D31A     		subs	r3, r2, r3
 149              	.LVL11:
  71:main.c        ****             
  72:main.c        ****                 /* previous - current because the timer is counting down. */
  73:main.c        ****                 time_delta = (double)(magnet_view_times[previous_index] - magnet_view_times[current
 150              		.loc 1 73 0
 151 0078 05EBC304 		add	r4, r5, r3, lsl #3
 152 007c 0246     		mov	r2, r0
 153 007e 0B46     		mov	r3, r1
 154              	.LVL12:
 155 0080 D4E90201 		ldrd	r0, [r4, #8]
ARM GAS  C:\Users\dgitau\AppData\Local\Temp\ccsO7j4q.s 			page 5


 156 0084 FFF7FEFF 		bl	__aeabi_dsub
 157              	.LVL13:
 158 0088 FFF7FEFF 		bl	__aeabi_d2uiz
 159              	.LVL14:
  74:main.c        ****                 input_speed = magnet_separation_distance / time_delta;
 160              		.loc 1 74 0
 161 008c FFF7FEFF 		bl	__aeabi_ui2d
 162              	.LVL15:
 163 0090 0646     		mov	r6, r0
 164 0092 0F46     		mov	r7, r1
 165 0094 0246     		mov	r2, r0
 166 0096 0B46     		mov	r3, r1
 167 0098 2FA1     		adr	r1, .L9
 168 009a D1E90001 		ldrd	r0, [r1]
 169 009e FFF7FEFF 		bl	__aeabi_ddiv
 170              	.LVL16:
 171 00a2 8046     		mov	r8, r0
 172 00a4 8946     		mov	r9, r1
 173              	.LVL17:
  75:main.c        ****                 
  76:main.c        ****                 /* Compute the error variables */
  77:main.c        ****                 error = desired_speed - input_speed;
 174              		.loc 1 77 0
 175 00a6 0246     		mov	r2, r0
 176 00a8 0B46     		mov	r3, r1
 177 00aa 0020     		movs	r0, #0
 178 00ac 3049     		ldr	r1, .L9+24
 179 00ae FFF7FEFF 		bl	__aeabi_dsub
 180              	.LVL18:
 181 00b2 0446     		mov	r4, r0
 182 00b4 0D46     		mov	r5, r1
 183              	.LVL19:
  78:main.c        ****                 err_sum = error * time_delta;
 184              		.loc 1 78 0
 185 00b6 0246     		mov	r2, r0
 186 00b8 0B46     		mov	r3, r1
 187 00ba 3046     		mov	r0, r6
 188 00bc 3946     		mov	r1, r7
 189 00be FFF7FEFF 		bl	__aeabi_dmul
 190              	.LVL20:
 191 00c2 CDE90001 		strd	r0, [sp]
 192              	.LVL21:
  79:main.c        ****                 err_derivative = (error - last_error) / time_delta;
 193              		.loc 1 79 0
 194 00c6 5246     		mov	r2, r10
 195 00c8 5B46     		mov	r3, fp
 196 00ca 2046     		mov	r0, r4
 197              	.LVL22:
 198 00cc 2946     		mov	r1, r5
 199 00ce FFF7FEFF 		bl	__aeabi_dsub
 200              	.LVL23:
 201 00d2 3246     		mov	r2, r6
 202 00d4 3B46     		mov	r3, r7
 203 00d6 FFF7FEFF 		bl	__aeabi_ddiv
 204              	.LVL24:
 205 00da 8246     		mov	r10, r0
 206              	.LVL25:
ARM GAS  C:\Users\dgitau\AppData\Local\Temp\ccsO7j4q.s 			page 6


 207 00dc 8B46     		mov	fp, r1
 208              	.LVL26:
  80:main.c        ****         
  81:main.c        ****                 /* Compute the PID output */
  82:main.c        ****                 output_speed = k_p * error + k_i * err_sum + k_d * err_derivative;
 209              		.loc 1 82 0
 210 00de 0022     		movs	r2, #0
 211 00e0 0023     		movs	r3, #0
 212 00e2 2046     		mov	r0, r4
 213 00e4 2946     		mov	r1, r5
 214 00e6 FFF7FEFF 		bl	__aeabi_dmul
 215              	.LVL27:
 216 00ea 0646     		mov	r6, r0
 217 00ec 0F46     		mov	r7, r1
 218 00ee 0022     		movs	r2, #0
 219 00f0 0023     		movs	r3, #0
 220 00f2 DDE90001 		ldrd	r0, [sp]
 221 00f6 FFF7FEFF 		bl	__aeabi_dmul
 222              	.LVL28:
 223 00fa 0246     		mov	r2, r0
 224 00fc 0B46     		mov	r3, r1
 225 00fe 3046     		mov	r0, r6
 226 0100 3946     		mov	r1, r7
 227 0102 FFF7FEFF 		bl	__aeabi_dadd
 228              	.LVL29:
 229 0106 0646     		mov	r6, r0
 230 0108 0F46     		mov	r7, r1
 231 010a 0022     		movs	r2, #0
 232 010c 0023     		movs	r3, #0
 233 010e 5046     		mov	r0, r10
 234 0110 5946     		mov	r1, fp
 235 0112 FFF7FEFF 		bl	__aeabi_dmul
 236              	.LVL30:
 237 0116 0246     		mov	r2, r0
 238 0118 0B46     		mov	r3, r1
 239 011a 3046     		mov	r0, r6
 240 011c 3946     		mov	r1, r7
 241 011e FFF7FEFF 		bl	__aeabi_dadd
 242              	.LVL31:
  83:main.c        ****         
  84:main.c        ****                 /* Tell the motor to switch to this new speed */
  85:main.c        ****                 PWM_WriteCompare(output_speed);
 243              		.loc 1 85 0
 244 0122 FFF7FEFF 		bl	__aeabi_d2uiz
 245              	.LVL32:
 246 0126 C0B2     		uxtb	r0, r0
 247 0128 FFF7FEFF 		bl	PWM_WriteCompare
 248              	.LVL33:
  86:main.c        ****         
  87:main.c        ****                 /* Store variables needed for the next run */
  88:main.c        ****                 last_error = error;
  89:main.c        ****                 
  90:main.c        ****                 /* Communicate the speed to the user */
  91:main.c        ****                 sprintf(str_buffer, "%f", input_speed);
 249              		.loc 1 91 0
 250 012c 4246     		mov	r2, r8
 251 012e 4B46     		mov	r3, r9
ARM GAS  C:\Users\dgitau\AppData\Local\Temp\ccsO7j4q.s 			page 7


 252 0130 1049     		ldr	r1, .L9+28
 253 0132 02A8     		add	r0, sp, #8
 254 0134 FFF7FEFF 		bl	sprintf
 255              	.LVL34:
  92:main.c        ****                 LCD_Position(0, 0);
 256              		.loc 1 92 0
 257 0138 0021     		movs	r1, #0
 258 013a 0846     		mov	r0, r1
 259 013c FFF7FEFF 		bl	LCD_Position
 260              	.LVL35:
  93:main.c        ****                 LCD_PrintString(str_buffer);
 261              		.loc 1 93 0
 262 0140 02A8     		add	r0, sp, #8
 263 0142 FFF7FEFF 		bl	LCD_PrintString
 264              	.LVL36:
  88:main.c        ****                 
 265              		.loc 1 88 0
 266 0146 A246     		mov	r10, r4
 267              	.LVL37:
 268 0148 AB46     		mov	fp, r5
 269              	.LVL38:
 270              	.L6:
  94:main.c        ****             }
  95:main.c        ****             
  96:main.c        ****             /* Set the flag to off so that it can be updated in the next cycle */
  97:main.c        ****             magnet_flag = 0;
 271              		.loc 1 97 0
 272 014a 0022     		movs	r2, #0
 273 014c 064B     		ldr	r3, .L9+16
 274 014e 1A60     		str	r2, [r3]
 275 0150 6EE7     		b	.L5
 276              	.L10:
 277 0152 00BFAFF3 		.align	3
 277      0080
 278              	.L9:
 279 0158 00000040 		.word	1073741824
 280 015c 9224F93F 		.word	1073292434
 281 0160 00000000 		.word	magnet_inter
 282 0164 00000000 		.word	.LC0
 283 0168 00000000 		.word	.LANCHOR0
 284 016c 67666666 		.word	1717986919
 285 0170 00001040 		.word	1074790400
 286 0174 10000000 		.word	.LC1
 287              		.cfi_endproc
 288              	.LFE65:
 289              		.size	main, .-main
 290              		.section	.rodata.str1.4,"aMS",%progbits,1
 291              		.align	2
 292              	.LC0:
 293 0000 53706565 		.ascii	"Speed Control!\000"
 293      6420436F 
 293      6E74726F 
 293      6C2100
 294 000f 00       		.space	1
 295              	.LC1:
 296 0010 256600   		.ascii	"%f\000"
 297              		.bss
ARM GAS  C:\Users\dgitau\AppData\Local\Temp\ccsO7j4q.s 			page 8


 298              		.align	3
 299              		.set	.LANCHOR0,. + 0
 300              		.type	magnet_flag, %object
 301              		.size	magnet_flag, 4
 302              	magnet_flag:
 303 0000 00000000 		.space	4
 304              		.type	index_of_magnet, %object
 305              		.size	index_of_magnet, 4
 306              	index_of_magnet:
 307 0004 00000000 		.space	4
 308              		.type	magnet_view_times, %object
 309              		.size	magnet_view_times, 40
 310              	magnet_view_times:
 311 0008 00000000 		.space	40
 311      00000000 
 311      00000000 
 311      00000000 
 311      00000000 
 312              		.text
 313              	.Letext0:
 314              		.file 2 "c:\\program files (x86)\\cypress\\psoc creator\\4.1\\psoc creator\\import\\gnu\\arm\\5.4.
 315              		.file 3 "c:\\program files (x86)\\cypress\\psoc creator\\4.1\\psoc creator\\import\\gnu\\arm\\5.4.
 316              		.file 4 "Generated_Source\\PSoC5/PWM.h"
 317              		.file 5 "Generated_Source\\PSoC5/Timer.h"
 318              		.file 6 "Generated_Source\\PSoC5/Counter_Interrupt.h"
 319              		.file 7 "Generated_Source\\PSoC5/LCD.h"
 320              		.file 8 "c:\\program files (x86)\\cypress\\psoc creator\\4.1\\psoc creator\\import\\gnu\\arm\\5.4.
 321              		.file 9 "Generated_Source\\PSoC5/core_cm3.h"